; Function Attrs: mustprogress uwtable
define hidden noundef i32 @_ZN4lean22get_num_nested_lambdasENS_4exprE(ptr noundef captures(none) %0) local_unnamed_addr #0 {
  %2 = load ptr, ptr %0, align 8, !tbaa !3
  %3 = getelementptr i8, ptr %2, i64 4
  %.val.i.i.i.i3 = load i32, ptr %3, align 4
  %.mask.i4 = and i32 %.val.i.i.i.i3, -16777216
  %4 = icmp eq i32 %.mask.i4, 100663296
  br i1 %4, label %.lr.ph, label %._crit_edge

.lr.ph:                                           ; preds = %1, %_ZN4lean4expraSERKS0_.exit
  %5 = phi ptr [ %18, %_ZN4lean4expraSERKS0_.exit ], [ %2, %1 ]
  %.05 = phi i32 [ %6, %_ZN4lean4expraSERKS0_.exit ], [ 0, %1 ]
  %6 = add i32 %.05, 1
  %7 = getelementptr inbounds nuw i8, ptr %5, i64 24
  %8 = load ptr, ptr %7, align 8, !tbaa !3
  %9 = ptrtoint ptr %8 to i64
  %10 = and i64 %9, 1
  %.not.i.i.i = icmp eq i64 %10, 0
  br i1 %.not.i.i.i, label %11, label %_ZN4lean3incEP11lean_object.exit.i.i

11:                                               ; preds = %.lr.ph
  %.val.i.i.i.i2 = load i32, ptr %8, align 4, !tbaa !13
  %12 = icmp sgt i32 %.val.i.i.i.i2, 0
  br i1 %12, label %13, label %15, !prof !15

13:                                               ; preds = %11
  %14 = add nuw nsw i32 %.val.i.i.i.i2, 1
  store i32 %14, ptr %8, align 4, !tbaa !13
  br label %_ZN4lean3incEP11lean_object.exit.i.i

15:                                               ; preds = %11
  %.not.i.i.i.i = icmp eq i32 %.val.i.i.i.i2, 0
  br i1 %.not.i.i.i.i, label %_ZN4lean3incEP11lean_object.exit.i.i, label %16

16:                                               ; preds = %15
  tail call void @lean_inc_ref_cold(ptr noundef nonnull %8)
  %.pre.i.i = load ptr, ptr %7, align 8, !tbaa !3
  %.pre = load ptr, ptr %0, align 8, !tbaa !3
  br label %_ZN4lean3incEP11lean_object.exit.i.i

_ZN4lean3incEP11lean_object.exit.i.i:             ; preds = %16, %15, %13, %.lr.ph
  %17 = phi ptr [ %5, %.lr.ph ], [ %5, %13 ], [ %5, %15 ], [ %.pre, %16 ]
  %18 = phi ptr [ %8, %.lr.ph ], [ %8, %13 ], [ %8, %15 ], [ %.pre.i.i, %16 ]
  %19 = ptrtoint ptr %17 to i64
  %20 = and i64 %19, 1
  %.not.i4.i.i = icmp eq i64 %20, 0
  br i1 %.not.i4.i.i, label %21, label %_ZN4lean4expraSERKS0_.exit

21:                                               ; preds = %_ZN4lean3incEP11lean_object.exit.i.i
  %22 = load i32, ptr %17, align 4, !tbaa !13
  %23 = icmp sgt i32 %22, 1
  br i1 %23, label %24, label %26, !prof !15

24:                                               ; preds = %21
  %25 = add nsw i32 %22, -1
  store i32 %25, ptr %17, align 4, !tbaa !13
  br label %_ZN4lean4expraSERKS0_.exit

26:                                               ; preds = %21
  %.not.i.i5.i.i = icmp eq i32 %22, 0
  br i1 %.not.i.i5.i.i, label %_ZN4lean4expraSERKS0_.exit, label %27

27:                                               ; preds = %26
  tail call void @lean_dec_ref_cold(ptr noundef nonnull %17)
  br label %_ZN4lean4expraSERKS0_.exit

_ZN4lean4expraSERKS0_.exit:                       ; preds = %_ZN4lean3incEP11lean_object.exit.i.i, %24, %26, %27
  store ptr %18, ptr %0, align 8, !tbaa !3
  %28 = getelementptr i8, ptr %18, i64 4
  %.val.i.i.i.i = load i32, ptr %28, align 4
  %.mask.i = and i32 %.val.i.i.i.i, -16777216
  %29 = icmp eq i32 %.mask.i, 100663296
  br i1 %29, label %.lr.ph, label %._crit_edge, !llvm.loop !41

._crit_edge:                                      ; preds = %_ZN4lean4expraSERKS0_.exit, %1
  %.0.lcssa = phi i32 [ 0, %1 ], [ %6, %_ZN4lean4expraSERKS0_.exit ]
  ret i32 %.0.lcssa
}